target datalayout = "e-m:e-p270:32:32-p271:32:32-p272:64:64-i64:64-i128:128-f80:128-n8:16:32:64-S128"
target triple = "x86_64-pc-linux-gnu"

%struct.job_record = type { i32, ptr, ptr, ptr, ptr, i16, i32, i32, i32, ptr, i32, ptr, ptr, i16, ptr, double, i64, ptr, ptr, ptr, ptr, ptr, ptr, i32, ptr, i32, i64, i64, i32, i32, ptr, i16, i64, i64, i8, i32, ptr, ptr, ptr, ptr, ptr, ptr, ptr, ptr, i32, ptr, ptr, i32, ptr, i32, ptr, i32, ptr, i32, ptr, ptr, ptr, ptr, ptr, ptr, i32, i16, i64, ptr, ptr, ptr, ptr, %struct.acct_policy_limit_set_t, i16, ptr, ptr, ptr, ptr, ptr, i32, ptr, ptr, ptr, ptr, ptr, i32, i32, ptr, ptr, ptr, i16, ptr, ptr, i8, ptr, ptr, i64, i64, i8, i32, i32, i8, i32, ptr, i32, i64, i32, ptr, ptr, ptr, i8, i16, i64, i32, ptr, ptr, ptr, ptr, ptr, i16, i32, ptr, ptr, ptr, ptr, i32, ptr, i32, i16, i64, ptr, i32, i32, ptr, i64, ptr, ptr, i64, i32, i32, i64, i32, i32, ptr, ptr, ptr, ptr, ptr, ptr, ptr, ptr, ptr, ptr, ptr, ptr, i32, ptr, i16, i16, i16, i16, ptr, i32, i32, i8, i64 }
%struct.acct_policy_limit_set_t = type { i16, i16, ptr }
%struct.job_array_struct = type { i32, ptr, ptr, i32, i32, i32, i32, i32, i32, i32 }

@hash_table_size = internal global i32 0, align 4
@job_array_hash_j = internal global ptr null, align 8
@job_array_hash_t = internal global ptr null, align 8
@job_hash = internal global ptr null, align 8

; Function Attrs: nounwind uwtable
define dso_local ptr @find_job_record(i32 noundef %0) #0 {
  %2 = alloca ptr, align 8
  %3 = alloca i32, align 4
  %4 = alloca ptr, align 8
  %5 = alloca i32, align 4
  store i32 %0, ptr %3, align 4
  call void @llvm.lifetime.start.p0(i64 8, ptr %4) #13
  %6 = load ptr, ptr @job_hash, align 8
  %7 = load i32, ptr %3, align 4
  %8 = load i32, ptr @hash_table_size, align 4
  %9 = urem i32 %7, %8
  %10 = zext i32 %9 to i64
  %11 = getelementptr inbounds nuw ptr, ptr %6, i64 %10
  %12 = load ptr, ptr %11, align 8
  store ptr %12, ptr %4, align 8
  br label %13

13:                                               ; preds = %24, %1
  %14 = load ptr, ptr %4, align 8
  %15 = icmp ne ptr %14, null
  br i1 %15, label %16, label %28

16:                                               ; preds = %13
  %17 = load ptr, ptr %4, align 8
  %18 = getelementptr inbounds nuw %struct.job_record, ptr %17, i32 0, i32 53
  %19 = load i32, ptr %18, align 8
  %20 = load i32, ptr %3, align 4
  %21 = icmp eq i32 %19, %20
  br i1 %21, label %22, label %24

22:                                               ; preds = %16
  %23 = load ptr, ptr %4, align 8
  store ptr %23, ptr %2, align 8
  store i32 1, ptr %5, align 4
  br label %29

24:                                               ; preds = %16
  %25 = load ptr, ptr %4, align 8
  %26 = getelementptr inbounds nuw %struct.job_record, ptr %25, i32 0, i32 55
  %27 = load ptr, ptr %26, align 8
  store ptr %27, ptr %4, align 8
  br label %13, !llvm.loop !14

28:                                               ; preds = %13
  store ptr null, ptr %2, align 8
  store i32 1, ptr %5, align 4
  br label %29

29:                                               ; preds = %28, %22
  call void @llvm.lifetime.end.p0(i64 8, ptr %4) #13
  %30 = load ptr, ptr %2, align 8
  ret ptr %30
}

; Function Attrs: nounwind uwtable
define dso_local ptr @find_job_array_rec(i32 noundef %0, i32 noundef %1) #0 {
  %3 = alloca ptr, align 8
  %4 = alloca i32, align 4
  %5 = alloca i32, align 4
  %6 = alloca ptr, align 8
  %7 = alloca ptr, align 8
  %8 = alloca i32, align 4
  %9 = alloca i32, align 4
  store i32 %0, ptr %4, align 4
  store i32 %1, ptr %5, align 4
  call void @llvm.lifetime.start.p0(i64 8, ptr %6) #13
  call void @llvm.lifetime.start.p0(i64 8, ptr %7) #13
  store ptr null, ptr %7, align 8
  call void @llvm.lifetime.start.p0(i64 4, ptr %8) #13
  %10 = load i32, ptr %5, align 4
  %11 = icmp eq i32 %10, -2
  br i1 %11, label %12, label %15

12:                                               ; preds = %2
  %13 = load i32, ptr %4, align 4
  %14 = call ptr @find_job_record(i32 noundef %13)
  store ptr %14, ptr %3, align 8
  store i32 1, ptr %9, align 4
  br label %144

15:                                               ; preds = %2
  %16 = load i32, ptr %5, align 4
  %17 = icmp eq i32 %16, -1
  br i1 %17, label %18, label %70

18:                                               ; preds = %15
  %19 = load i32, ptr %4, align 4
  %20 = call ptr @find_job_record(i32 noundef %19)
  store ptr %20, ptr %6, align 8
  %21 = load ptr, ptr %6, align 8
  %22 = icmp ne ptr %21, null
  br i1 %22, label %23, label %36

23:                                               ; preds = %18
  %24 = load ptr, ptr %6, align 8
  %25 = getelementptr inbounds nuw %struct.job_record, ptr %24, i32 0, i32 9
  %26 = load ptr, ptr %25, align 8
  %27 = icmp ne ptr %26, null
  br i1 %27, label %28, label %36

28:                                               ; preds = %23
  %29 = load ptr, ptr %6, align 8
  %30 = getelementptr inbounds nuw %struct.job_record, ptr %29, i32 0, i32 7
  %31 = load i32, ptr %30, align 8
  %32 = load i32, ptr %4, align 4
  %33 = icmp eq i32 %31, %32
  br i1 %33, label %34, label %36

34:                                               ; preds = %28
  %35 = load ptr, ptr %6, align 8
  store ptr %35, ptr %3, align 8
  store i32 1, ptr %9, align 4
  br label %144

36:                                               ; preds = %28, %23, %18
  %37 = load i32, ptr %4, align 4
  %38 = load i32, ptr @hash_table_size, align 4
  %39 = urem i32 %37, %38
  store i32 %39, ptr %8, align 4
  %40 = load ptr, ptr @job_array_hash_j, align 8
  %41 = load i32, ptr %8, align 4
  %42 = sext i32 %41 to i64
  %43 = getelementptr inbounds ptr, ptr %40, i64 %42
  %44 = load ptr, ptr %43, align 8
  store ptr %44, ptr %6, align 8
  br label %45

45:                                               ; preds = %64, %36
  %46 = load ptr, ptr %6, align 8
  %47 = icmp ne ptr %46, null
  br i1 %47, label %48, label %68

48:                                               ; preds = %45
  %49 = load ptr, ptr %6, align 8
  %50 = getelementptr inbounds nuw %struct.job_record, ptr %49, i32 0, i32 7
  %51 = load i32, ptr %50, align 8
  %52 = load i32, ptr %4, align 4
  %53 = icmp eq i32 %51, %52
  br i1 %53, label %54, label %64

54:                                               ; preds = %48
  %55 = load ptr, ptr %6, align 8
  store ptr %55, ptr %7, align 8
  %56 = load ptr, ptr %6, align 8
  %57 = getelementptr inbounds nuw %struct.job_record, ptr %56, i32 0, i32 60
  %58 = load i32, ptr %57, align 8
  %59 = and i32 %58, 255
  %60 = icmp ugt i32 %59, 2
  br i1 %60, label %63, label %61

61:                                               ; preds = %54
  %62 = load ptr, ptr %6, align 8
  store ptr %62, ptr %3, align 8
  store i32 1, ptr %9, align 4
  br label %144

63:                                               ; preds = %54
  br label %64

64:                                               ; preds = %63, %48
  %65 = load ptr, ptr %6, align 8
  %66 = getelementptr inbounds nuw %struct.job_record, ptr %65, i32 0, i32 56
  %67 = load ptr, ptr %66, align 8
  store ptr %67, ptr %6, align 8
  br label %45, !llvm.loop !20

68:                                               ; preds = %45
  %69 = load ptr, ptr %7, align 8
  store ptr %69, ptr %3, align 8
  store i32 1, ptr %9, align 4
  br label %144

70:                                               ; preds = %15
  %71 = load i32, ptr %4, align 4
  %72 = load i32, ptr %5, align 4
  %73 = add i32 %71, %72
  %74 = load i32, ptr @hash_table_size, align 4
  %75 = urem i32 %73, %74
  store i32 %75, ptr %8, align 4
  %76 = load ptr, ptr @job_array_hash_t, align 8
  %77 = load i32, ptr %8, align 4
  %78 = sext i32 %77 to i64
  %79 = getelementptr inbounds ptr, ptr %76, i64 %78
  %80 = load ptr, ptr %79, align 8
  store ptr %80, ptr %6, align 8
  br label %81

81:                                               ; preds = %98, %70
  %82 = load ptr, ptr %6, align 8
  %83 = icmp ne ptr %82, null
  br i1 %83, label %84, label %102

84:                                               ; preds = %81
  %85 = load ptr, ptr %6, align 8
  %86 = getelementptr inbounds nuw %struct.job_record, ptr %85, i32 0, i32 7
  %87 = load i32, ptr %86, align 8
  %88 = load i32, ptr %4, align 4
  %89 = icmp eq i32 %87, %88
  br i1 %89, label %90, label %98

90:                                               ; preds = %84
  %91 = load ptr, ptr %6, align 8
  %92 = getelementptr inbounds nuw %struct.job_record, ptr %91, i32 0, i32 8
  %93 = load i32, ptr %92, align 4
  %94 = load i32, ptr %5, align 4
  %95 = icmp eq i32 %93, %94
  br i1 %95, label %96, label %98

96:                                               ; preds = %90
  %97 = load ptr, ptr %6, align 8
  store ptr %97, ptr %3, align 8
  store i32 1, ptr %9, align 4
  br label %144

98:                                               ; preds = %90, %84
  %99 = load ptr, ptr %6, align 8
  %100 = getelementptr inbounds nuw %struct.job_record, ptr %99, i32 0, i32 57
  %101 = load ptr, ptr %100, align 8
  store ptr %101, ptr %6, align 8
  br label %81, !llvm.loop !21

102:                                              ; preds = %81
  %103 = load i32, ptr %4, align 4
  %104 = call ptr @find_job_record(i32 noundef %103)
  store ptr %104, ptr %6, align 8
  %105 = load ptr, ptr %6, align 8
  %106 = icmp ne ptr %105, null
  br i1 %106, label %107, label %143

107:                                              ; preds = %102
  %108 = load ptr, ptr %6, align 8
  %109 = getelementptr inbounds nuw %struct.job_record, ptr %108, i32 0, i32 9
  %110 = load ptr, ptr %109, align 8
  %111 = icmp ne ptr %110, null
  br i1 %111, label %112, label %143

112:                                              ; preds = %107
  %113 = load ptr, ptr %6, align 8
  %114 = getelementptr inbounds nuw %struct.job_record, ptr %113, i32 0, i32 9
  %115 = load ptr, ptr %114, align 8
  %116 = getelementptr inbounds nuw %struct.job_array_struct, ptr %115, i32 0, i32 1
  %117 = load ptr, ptr %116, align 8
  %118 = icmp ne ptr %117, null
  br i1 %118, label %119, label %143

119:                                              ; preds = %112
  %120 = load ptr, ptr %6, align 8
  %121 = getelementptr inbounds nuw %struct.job_record, ptr %120, i32 0, i32 9
  %122 = load ptr, ptr %121, align 8
  %123 = getelementptr inbounds nuw %struct.job_array_struct, ptr %122, i32 0, i32 1
  %124 = load ptr, ptr %123, align 8
  %125 = call i64 @bit_size(ptr noundef %124)
  %126 = trunc i64 %125 to i32
  store i32 %126, ptr %8, align 4
  %127 = load i32, ptr %5, align 4
  %128 = load i32, ptr %8, align 4
  %129 = icmp ult i32 %127, %128
  br i1 %129, label %130, label %142

130:                                              ; preds = %119
  %131 = load ptr, ptr %6, align 8
  %132 = getelementptr inbounds nuw %struct.job_record, ptr %131, i32 0, i32 9
  %133 = load ptr, ptr %132, align 8
  %134 = getelementptr inbounds nuw %struct.job_array_struct, ptr %133, i32 0, i32 1
  %135 = load ptr, ptr %134, align 8
  %136 = load i32, ptr %5, align 4
  %137 = zext i32 %136 to i64
  %138 = call i32 @slurm_bit_test(ptr noundef %135, i64 noundef %137)
  %139 = icmp ne i32 %138, 0
  br i1 %139, label %140, label %142

140:                                              ; preds = %130
  %141 = load ptr, ptr %6, align 8
  store ptr %141, ptr %3, align 8
  store i32 1, ptr %9, align 4
  br label %144

142:                                              ; preds = %130, %119
  br label %143

143:                                              ; preds = %142, %112, %107, %102
  store ptr null, ptr %3, align 8
  store i32 1, ptr %9, align 4
  br label %144

144:                                              ; preds = %143, %140, %96, %68, %61, %34, %12
  call void @llvm.lifetime.end.p0(i64 4, ptr %8) #13
  call void @llvm.lifetime.end.p0(i64 8, ptr %7) #13
  call void @llvm.lifetime.end.p0(i64 8, ptr %6) #13
  %145 = load ptr, ptr %3, align 8
  ret ptr %145
}