; Function Attrs: nounwind uwtable
define dso_local ptr @find_job_array_rec(i32 noundef %0, i32 noundef %1) local_unnamed_addr #0 {
  %3 = load i32, ptr @hash_table_size, align 4
  switch i32 %1, label %43 [
    i32 -2, label %4
    i32 -1, label %14
  ]

4:                                                ; preds = %2
  %5 = load ptr, ptr @job_hash, align 8
  %6 = urem i32 %0, %3
  %7 = zext i32 %6 to i64
  %8 = getelementptr inbounds nuw ptr, ptr %5, i64 %7
  %.07.i = load ptr, ptr %8, align 8
  %.not8.i = icmp eq ptr %.07.i, null
  br i1 %.not8.i, label %find_job_record.exit, label %.lr.ph.i

.lr.ph.i:                                         ; preds = %4, %12
  %.09.i = phi ptr [ %.0.i, %12 ], [ %.07.i, %4 ]
  %9 = getelementptr inbounds nuw i8, ptr %.09.i, i64 392
  %10 = load i32, ptr %9, align 8
  %11 = icmp eq i32 %10, %0
  br i1 %11, label %find_job_record.exit, label %12

12:                                               ; preds = %.lr.ph.i
  %13 = getelementptr inbounds nuw i8, ptr %.09.i, i64 408
  %.0.i = load ptr, ptr %13, align 8
  %.not.i = icmp eq ptr %.0.i, null
  br i1 %.not.i, label %find_job_record.exit, label %.lr.ph.i, !llvm.loop !14

14:                                               ; preds = %2
  %15 = load ptr, ptr @job_hash, align 8
  %16 = urem i32 %0, %3
  %17 = zext i32 %16 to i64
  %18 = getelementptr inbounds nuw ptr, ptr %15, i64 %17
  %.07.i54 = load ptr, ptr %18, align 8
  %.not8.i55 = icmp eq ptr %.07.i54, null
  br i1 %.not8.i55, label %find_job_record.exit61.thread, label %.lr.ph.i56

.lr.ph.i56:                                       ; preds = %14, %22
  %.09.i57 = phi ptr [ %.0.i58, %22 ], [ %.07.i54, %14 ]
  %19 = getelementptr inbounds nuw i8, ptr %.09.i57, i64 392
  %20 = load i32, ptr %19, align 8
  %21 = icmp eq i32 %20, %0
  br i1 %21, label %find_job_record.exit61, label %22

22:                                               ; preds = %.lr.ph.i56
  %23 = getelementptr inbounds nuw i8, ptr %.09.i57, i64 408
  %.0.i58 = load ptr, ptr %23, align 8
  %.not.i59 = icmp eq ptr %.0.i58, null
  br i1 %.not.i59, label %find_job_record.exit61.thread, label %.lr.ph.i56, !llvm.loop !14

find_job_record.exit61:                           ; preds = %.lr.ph.i56
  %24 = getelementptr inbounds nuw i8, ptr %.09.i57, i64 56
  %25 = load ptr, ptr %24, align 8
  %.not52 = icmp eq ptr %25, null
  br i1 %.not52, label %find_job_record.exit61.thread, label %26

26:                                               ; preds = %find_job_record.exit61
  %27 = getelementptr inbounds nuw i8, ptr %.09.i57, i64 48
  %28 = load i32, ptr %27, align 8
  %29 = icmp eq i32 %28, %0
  br i1 %29, label %find_job_record.exit, label %find_job_record.exit61.thread

find_job_record.exit61.thread:                    ; preds = %22, %14, %26, %find_job_record.exit61
  %30 = load ptr, ptr @job_array_hash_j, align 8
  %31 = sext i32 %16 to i64
  %32 = getelementptr inbounds ptr, ptr %30, i64 %31
  %.03980 = load ptr, ptr %32, align 8
  %.not5381 = icmp eq ptr %.03980, null
  br i1 %.not5381, label %find_job_record.exit, label %.lr.ph

.lr.ph:                                           ; preds = %find_job_record.exit61.thread, %41
  %.03983 = phi ptr [ %.039, %41 ], [ %.03980, %find_job_record.exit61.thread ]
  %.082 = phi ptr [ %.1, %41 ], [ null, %find_job_record.exit61.thread ]
  %33 = getelementptr inbounds nuw i8, ptr %.03983, i64 48
  %34 = load i32, ptr %33, align 8
  %35 = icmp eq i32 %34, %0
  br i1 %35, label %36, label %41

36:                                               ; preds = %.lr.ph
  %37 = getelementptr inbounds nuw i8, ptr %.03983, i64 448
  %38 = load i32, ptr %37, align 8
  %39 = and i32 %38, 255
  %40 = icmp samesign ugt i32 %39, 2
  br i1 %40, label %41, label %find_job_record.exit

41:                                               ; preds = %36, %.lr.ph
  %.1 = phi ptr [ %.03983, %36 ], [ %.082, %.lr.ph ]
  %42 = getelementptr inbounds nuw i8, ptr %.03983, i64 416
  %.039 = load ptr, ptr %42, align 8
  %.not53 = icmp eq ptr %.039, null
  br i1 %.not53, label %find_job_record.exit, label %.lr.ph, !llvm.loop !21

43:                                               ; preds = %2
  %44 = add i32 %1, %0
  %45 = urem i32 %44, %3
  %46 = load ptr, ptr @job_array_hash_t, align 8
  %47 = sext i32 %45 to i64
  %48 = getelementptr inbounds ptr, ptr %46, i64 %47
  %.14086 = load ptr, ptr %48, align 8
  %.not87 = icmp eq ptr %.14086, null
  br i1 %.not87, label %._crit_edge, label %.lr.ph89

.lr.ph89:                                         ; preds = %43, %56
  %.14088 = phi ptr [ %.140, %56 ], [ %.14086, %43 ]
  %49 = getelementptr inbounds nuw i8, ptr %.14088, i64 48
  %50 = load i32, ptr %49, align 8
  %51 = icmp eq i32 %50, %0
  br i1 %51, label %52, label %56

52:                                               ; preds = %.lr.ph89
  %53 = getelementptr inbounds nuw i8, ptr %.14088, i64 52
  %54 = load i32, ptr %53, align 4
  %55 = icmp eq i32 %54, %1
  br i1 %55, label %find_job_record.exit, label %56

56:                                               ; preds = %52, %.lr.ph89
  %57 = getelementptr inbounds nuw i8, ptr %.14088, i64 424
  %.140 = load ptr, ptr %57, align 8
  %.not = icmp eq ptr %.140, null
  br i1 %.not, label %._crit_edge, label %.lr.ph89, !llvm.loop !22

._crit_edge:                                      ; preds = %56, %43
  %58 = load ptr, ptr @job_hash, align 8
  %59 = urem i32 %0, %3
  %60 = zext i32 %59 to i64
  %61 = getelementptr inbounds nuw ptr, ptr %58, i64 %60
  %.07.i62 = load ptr, ptr %61, align 8
  %.not8.i63 = icmp eq ptr %.07.i62, null
  br i1 %.not8.i63, label %find_job_record.exit69.thread, label %.lr.ph.i64

.lr.ph.i64:                                       ; preds = %._crit_edge, %65
  %.09.i65 = phi ptr [ %.0.i66, %65 ], [ %.07.i62, %._crit_edge ]
  %62 = getelementptr inbounds nuw i8, ptr %.09.i65, i64 392
  %63 = load i32, ptr %62, align 8
  %64 = icmp eq i32 %63, %0
  br i1 %64, label %find_job_record.exit69, label %65

65:                                               ; preds = %.lr.ph.i64
  %66 = getelementptr inbounds nuw i8, ptr %.09.i65, i64 408
  %.0.i66 = load ptr, ptr %66, align 8
  %.not.i67 = icmp eq ptr %.0.i66, null
  br i1 %.not.i67, label %find_job_record.exit69.thread, label %.lr.ph.i64, !llvm.loop !14

find_job_record.exit69:                           ; preds = %.lr.ph.i64
  %67 = getelementptr inbounds nuw i8, ptr %.09.i65, i64 56
  %68 = load ptr, ptr %67, align 8
  %.not48 = icmp eq ptr %68, null
  br i1 %.not48, label %find_job_record.exit69.thread, label %69

69:                                               ; preds = %find_job_record.exit69
  %70 = getelementptr inbounds nuw i8, ptr %68, i64 8
  %71 = load ptr, ptr %70, align 8
  %.not49 = icmp eq ptr %71, null
  br i1 %.not49, label %find_job_record.exit69.thread, label %72

72:                                               ; preds = %69
  %73 = tail call i64 @bit_size(ptr noundef nonnull %71) #27
  %74 = trunc i64 %73 to i32
  %75 = icmp ult i32 %1, %74
  br i1 %75, label %76, label %find_job_record.exit69.thread

76:                                               ; preds = %72
  %77 = load ptr, ptr %67, align 8
  %78 = getelementptr inbounds nuw i8, ptr %77, i64 8
  %79 = load ptr, ptr %78, align 8
  %80 = zext i32 %1 to i64
  %81 = tail call i32 @slurm_bit_test(ptr noundef %79, i64 noundef %80) #27
  %.not50 = icmp eq i32 %81, 0
  br i1 %.not50, label %find_job_record.exit69.thread, label %find_job_record.exit

find_job_record.exit69.thread:                    ; preds = %65, %._crit_edge, %72, %76, %69, %find_job_record.exit69
  br label %find_job_record.exit

find_job_record.exit:                             ; preds = %36, %41, %12, %.lr.ph.i, %52, %find_job_record.exit61.thread, %4, %76, %26, %find_job_record.exit69.thread
  %.041 = phi ptr [ null, %find_job_record.exit69.thread ], [ %.09.i57, %26 ], [ %.09.i65, %76 ], [ null, %4 ], [ null, %find_job_record.exit61.thread ], [ %.14088, %52 ], [ %.09.i, %.lr.ph.i ], [ null, %12 ], [ %.03983, %36 ], [ %.1, %41 ]
  ret ptr %.041
}